Certificate:
    Data:
        Version: 3 (0x2)
        Serial Number:
            d3:4a:f4:ef:87:65:d7:7a
        Signature Algorithm: sha1WithRSAEncryption
        Issuer: C=US, ST=New York, L=Brooklyn, O=ucspi-ssl research laboratory, CN=ucspi-ssl research ca
        Validity
            Not Before: Jan 12 10:57:08 2014 GMT
            Not After : Jan 10 10:57:08 2024 GMT
        Subject: C=US, ST=New York, L=Brooklyn, O=ucspi-ssl research laboratory, CN=loopback
        Subject Public Key Info:
            Public Key Algorithm: rsaEncryption
            RSA Public Key: (1024 bit)
                Modulus (1024 bit):
                    00:b9:a3:ff:a9:98:8f:55:32:e5:0e:33:a8:0f:a5:
                    b6:be:f6:04:b6:f1:0d:3c:4b:73:73:ca:2a:04:aa:
                    3e:04:8d:0c:94:88:e6:7d:65:5d:59:57:66:8a:15:
                    48:1d:01:23:13:1d:15:90:e3:ba:92:e7:2a:f5:30:
                    ae:1c:1f:40:38:87:65:c4:2d:b0:f4:28:68:48:2f:
                    a1:79:40:12:e8:7f:98:fd:11:59:31:db:bc:6f:8b:
                    28:a2:43:68:57:e2:30:93:f1:73:98:e8:f2:64:29:
                    94:ec:83:f8:4c:e0:d0:c5:49:b7:11:e5:d4:0e:66:
                    12:ae:0f:65:0a:55:89:24:8d
                Exponent: 65537 (0x10001)
        X509v3 extensions:
            X509v3 Basic Constraints: 
                CA:FALSE
            X509v3 Key Usage: 
                Digital Signature, Key Encipherment
            X509v3 Extended Key Usage: 
                TLS Web Server Authentication
            X509v3 Subject Alternative Name: 
                IP Address:127.0.0.1, DNS:localhost
            X509v3 Authority Key Identifier: 
                DirName:/C=US/ST=New York/L=Brooklyn/O=ucspi-ssl research laboratory/CN=ucspi-ssl research ca
                serial:EF:35:D2:09:2D:2A:D8:2C

    Signature Algorithm: sha1WithRSAEncryption
        4c:1e:ea:f4:35:48:b3:1b:e1:ef:93:63:2a:99:d4:db:50:90:
        07:09:a0:11:9e:fc:79:15:0d:6f:71:3c:e0:83:0b:27:c2:42:
        d5:c7:c6:53:57:92:81:a5:1c:f7:f3:15:6a:a2:31:17:df:60:
        86:65:54:b8:58:be:40:9b:6d:a5:de:c1:69:9d:1a:a4:70:a9:
        5b:e1:d8:a9:80:09:b4:ac:d9:34:b5:a1:95:98:97:b5:bb:7f:
        e6:32:d3:27:4d:c1:dc:a0:e3:d9:5b:85:cf:73:1e:12:70:f9:
        eb:51:ac:d2:59:4d:ea:ee:a2:d9:60:9d:ac:73:a7:e2:86:78:
        3f:5a:ca:b1:d3:2f:55:ee:fd:c3:8f:81:d4:76:39:56:e4:8c:
        0c:3a:e0:2d:c5:5f:79:36:bb:20:c5:0f:bd:ed:ab:c7:a8:75:
        9d:20:d8:f8:3a:ee:b1:44:cb:1c:0f:74:ac:2a:02:56:25:9c:
        a6:7a:a4:eb:9c:3f:26:d0:c5:32:46:da:70:96:dc:78:fe:5f:
        ce:59:7a:6f:6c:c7:0f:83:dd:6a:16:2c:9f:02:fe:dd:13:af:
        f5:2b:71:fe:4b:42:96:d7:6c:f5:31:89:65:16:47:77:af:1b:
        ad:28:61:75:14:6b:3b:7e:9f:e3:d6:14:e6:4a:b4:17:08:65:
        07:fb:a8:06
-----BEGIN CERTIFICATE-----
MIIDzzCCAregAwIBAgIJANNK9O+HZdd6MA0GCSqGSIb3DQEBBQUAMHsxCzAJBgNV
BAYTAlVTMREwDwYDVQQIEwhOZXcgWW9yazERMA8GA1UEBxMIQnJvb2tseW4xJjAk
BgNVBAoTHXVjc3BpLXNzbCByZXNlYXJjaCBsYWJvcmF0b3J5MR4wHAYDVQQDExV1
Y3NwaS1zc2wgcmVzZWFyY2ggY2EwHhcNMTQwMTEyMTA1NzA4WhcNMjQwMTEwMTA1
NzA4WjBuMQswCQYDVQQGEwJVUzERMA8GA1UECBMITmV3IFlvcmsxETAPBgNVBAcT
CEJyb29rbHluMSYwJAYDVQQKEx11Y3NwaS1zc2wgcmVzZWFyY2ggbGFib3JhdG9y
eTERMA8GA1UEAxMIbG9vcGJhY2swgZ8wDQYJKoZIhvcNAQEBBQADgY0AMIGJAoGB
ALmj/6mYj1Uy5Q4zqA+ltr72BLbxDTxLc3PKKgSqPgSNDJSI5n1lXVlXZooVSB0B
IxMdFZDjupLnKvUwrhwfQDiHZcQtsPQoaEgvoXlAEuh/mP0RWTHbvG+LKKJDaFfi
MJPxc5jo8mQplOyD+Ezg0MVJtxHl1A5mEq4PZQpViSSNAgMBAAGjgeYwgeMwCQYD
VR0TBAIwADALBgNVHQ8EBAMCBaAwEwYDVR0lBAwwCgYIKwYBBQUHAwEwGgYDVR0R
BBMwEYcEfwAAAYIJbG9jYWxob3N0MIGXBgNVHSMEgY8wgYyhf6R9MHsxCzAJBgNV
BAYTAlVTMREwDwYDVQQIEwhOZXcgWW9yazERMA8GA1UEBxMIQnJvb2tseW4xJjAk
BgNVBAoTHXVjc3BpLXNzbCByZXNlYXJjaCBsYWJvcmF0b3J5MR4wHAYDVQQDExV1
Y3NwaS1zc2wgcmVzZWFyY2ggY2GCCQDvNdIJLSrYLDANBgkqhkiG9w0BAQUFAAOC
AQEATB7q9DVIsxvh75NjKpnU21CQBwmgEZ78eRUNb3E84IMLJ8JC1cfGU1eSgaUc
9/MVaqIxF99ghmVUuFi+QJttpd7BaZ0apHCpW+HYqYAJtKzZNLWhlZiXtbt/5jLT
J03B3KDj2VuFz3MeEnD561Gs0llN6u6i2WCdrHOn4oZ4P1rKsdMvVe79w4+B1HY5
VuSMDDrgLcVfeTa7IMUPve2rx6h1nSDY+DrusUTLHA90rCoCViWcpnqk65w/JtDF
MkbacJbceP5fzll6b2zHD4PdahYsnwL+3ROv9Stx/ktCltds9TGJZRZHd68brShh
dRRrO36f49YU5kq0FwhlB/uoBg==
-----END CERTIFICATE-----
