Certificate:
    Data:
        Version: 3 (0x2)
        Serial Number:
            d3:4a:f4:ef:87:65:d7:7b
        Signature Algorithm: sha1WithRSAEncryption
        Issuer: C=US, ST=New York, L=Brooklyn, O=ucspi-ssl research laboratory, CN=ucspi-ssl research ca
        Validity
            Not Before: Jan 12 10:57:43 2014 GMT
            Not After : Jan 10 10:57:43 2024 GMT
        Subject: C=US, ST=New York, L=Brooklyn, O=ucspi-ssl research laboratory, CN=loopback
        Subject Public Key Info:
            Public Key Algorithm: rsaEncryption
            RSA Public Key: (1024 bit)
                Modulus (1024 bit):
                    00:ce:4e:f1:6b:3d:6e:d8:ec:a2:ee:a7:8f:3e:22:
                    53:49:4b:cc:86:ba:f8:e4:20:a1:d5:b8:31:de:d8:
                    9e:d8:3a:b5:90:14:d4:1c:15:6d:7f:3d:ee:b4:c3:
                    01:05:de:40:03:4c:54:91:e9:3f:97:d2:f7:0b:7e:
                    ce:21:dd:f3:09:c8:fd:72:e0:ce:1d:1e:2e:0d:2f:
                    71:77:f8:53:3f:49:96:31:d8:2a:0f:8e:2e:2e:c0:
                    78:95:e9:e0:d4:dd:4f:7f:fe:b9:5e:a9:1c:71:3d:
                    69:ab:10:40:ae:74:81:ac:c4:03:27:d5:aa:a1:f4:
                    23:06:e6:2a:2c:dd:ed:12:f9
                Exponent: 65537 (0x10001)
        X509v3 extensions:
            X509v3 Basic Constraints: 
                CA:FALSE
            X509v3 Key Usage: 
                Digital Signature, Key Encipherment
            X509v3 Extended Key Usage: 
                TLS Web Server Authentication
            X509v3 Subject Alternative Name: 
                IP Address:0:0:0:0:0:0:0:1, DNS:localhost
            X509v3 Authority Key Identifier: 
                DirName:/C=US/ST=New York/L=Brooklyn/O=ucspi-ssl research laboratory/CN=ucspi-ssl research ca
                serial:EF:35:D2:09:2D:2A:D8:2C

    Signature Algorithm: sha1WithRSAEncryption
        31:24:11:5a:66:12:92:03:ae:1e:df:3d:e9:ca:fd:c2:c5:fd:
        c5:37:e8:0b:59:82:f3:82:4f:ab:3f:ff:17:07:26:85:13:e9:
        5e:d6:e0:06:64:96:08:8b:84:ac:b6:b9:ae:39:91:5c:1f:18:
        7b:90:7b:b6:ce:71:f2:b4:60:36:18:32:b3:71:fd:cb:af:56:
        3d:bf:41:c3:cf:6e:eb:af:04:08:a1:0e:13:e8:45:ac:b2:53:
        d5:39:fb:f3:cb:c3:24:d5:8a:61:ac:52:0a:36:c1:03:a9:ba:
        d3:87:fc:2c:83:f8:05:80:af:94:4e:7e:5d:ee:1c:7f:b5:c1:
        ad:cc:ea:d6:e0:e1:20:cc:1b:10:47:f4:19:ed:61:03:c4:40:
        5b:93:b7:29:82:3c:9a:fa:9b:94:cd:0a:47:0b:d7:2d:f9:79:
        e6:69:57:42:d0:db:af:a4:09:d0:b7:ab:1c:b2:d1:39:9c:81:
        5b:00:11:55:45:77:76:d2:f6:ad:98:6f:3b:44:97:80:9e:53:
        b7:25:66:f6:e7:64:cb:72:77:cd:37:7f:75:9d:f8:bf:43:19:
        4d:e7:85:2c:67:9c:ce:cf:3d:92:63:e0:cb:7b:d3:d0:f5:f3:
        1c:84:21:71:03:18:dc:f6:b5:59:ac:f3:ed:e5:cd:62:42:d1:
        56:e8:72:27
-----BEGIN CERTIFICATE-----
MIID2zCCAsOgAwIBAgIJANNK9O+HZdd7MA0GCSqGSIb3DQEBBQUAMHsxCzAJBgNV
BAYTAlVTMREwDwYDVQQIEwhOZXcgWW9yazERMA8GA1UEBxMIQnJvb2tseW4xJjAk
BgNVBAoTHXVjc3BpLXNzbCByZXNlYXJjaCBsYWJvcmF0b3J5MR4wHAYDVQQDExV1
Y3NwaS1zc2wgcmVzZWFyY2ggY2EwHhcNMTQwMTEyMTA1NzQzWhcNMjQwMTEwMTA1
NzQzWjBuMQswCQYDVQQGEwJVUzERMA8GA1UECBMITmV3IFlvcmsxETAPBgNVBAcT
CEJyb29rbHluMSYwJAYDVQQKEx11Y3NwaS1zc2wgcmVzZWFyY2ggbGFib3JhdG9y
eTERMA8GA1UEAxMIbG9vcGJhY2swgZ8wDQYJKoZIhvcNAQEBBQADgY0AMIGJAoGB
AM5O8Ws9btjsou6njz4iU0lLzIa6+OQgodW4Md7Yntg6tZAU1BwVbX897rTDAQXe
QANMVJHpP5fS9wt+ziHd8wnI/XLgzh0eLg0vcXf4Uz9JljHYKg+OLi7AeJXp4NTd
T3/+uV6pHHE9aasQQK50gazEAyfVqqH0IwbmKizd7RL5AgMBAAGjgfIwge8wCQYD
VR0TBAIwADALBgNVHQ8EBAMCBaAwEwYDVR0lBAwwCgYIKwYBBQUHAwEwJgYDVR0R
BB8wHYcQAAAAAAAAAAAAAAAAAAAAAYIJbG9jYWxob3N0MIGXBgNVHSMEgY8wgYyh
f6R9MHsxCzAJBgNVBAYTAlVTMREwDwYDVQQIEwhOZXcgWW9yazERMA8GA1UEBxMI
QnJvb2tseW4xJjAkBgNVBAoTHXVjc3BpLXNzbCByZXNlYXJjaCBsYWJvcmF0b3J5
MR4wHAYDVQQDExV1Y3NwaS1zc2wgcmVzZWFyY2ggY2GCCQDvNdIJLSrYLDANBgkq
hkiG9w0BAQUFAAOCAQEAMSQRWmYSkgOuHt896cr9wsX9xTfoC1mC84JPqz//Fwcm
hRPpXtbgBmSWCIuErLa5rjmRXB8Ye5B7ts5x8rRgNhgys3H9y69WPb9Bw89u668E
CKEOE+hFrLJT1Tn788vDJNWKYaxSCjbBA6m604f8LIP4BYCvlE5+Xe4cf7XBrczq
1uDhIMwbEEf0Ge1hA8RAW5O3KYI8mvqblM0KRwvXLfl55mlXQtDbr6QJ0LerHLLR
OZyBWwARVUV3dtL2rZhvO0SXgJ5TtyVm9udky3J3zTd/dZ34v0MZTeeFLGeczs89
kmPgy3vT0PXzHIQhcQMY3Pa1Wazz7eXNYkLRVuhyJw==
-----END CERTIFICATE-----
