Certificate:
    Data:
        Version: 3 (0x2)
        Serial Number:
            d3:4a:f4:ef:87:65:d7:7c
        Signature Algorithm: sha1WithRSAEncryption
        Issuer: C=US, ST=New York, L=Brooklyn, O=ucspi-ssl research laboratory, CN=ucspi-ssl research ca
        Validity
            Not Before: Jan 12 10:58:12 2014 GMT
            Not After : Jan 10 10:58:12 2024 GMT
        Subject: C=US, ST=New York, L=Brooklyn, O=ucspi-ssl research laboratory, CN=localhost
        Subject Public Key Info:
            Public Key Algorithm: rsaEncryption
            RSA Public Key: (1024 bit)
                Modulus (1024 bit):
                    00:ad:a1:be:aa:b7:7b:08:86:04:2a:bd:b1:44:a6:
                    6e:8f:36:2f:8f:8e:09:8a:e7:89:0e:ee:c1:3b:8f:
                    2e:81:49:4a:f7:11:31:2f:69:16:ab:fe:9c:27:3c:
                    d6:56:53:38:0b:28:08:c3:5c:a8:19:2a:df:e4:46:
                    d9:b9:6d:68:1e:57:6a:e0:6b:c9:e4:16:12:38:27:
                    78:7c:67:17:63:05:35:da:63:43:17:0d:c3:ec:03:
                    7a:3f:2c:a9:23:2d:28:56:b7:21:74:71:20:36:12:
                    63:02:5b:84:3f:08:02:88:4d:11:44:61:6e:f2:7d:
                    a3:a4:47:3a:71:dd:28:c8:79
                Exponent: 65537 (0x10001)
        X509v3 extensions:
            X509v3 Basic Constraints: 
                CA:FALSE
            X509v3 Key Usage: 
                Digital Signature, Key Encipherment
            X509v3 Extended Key Usage: 
                TLS Web Client Authentication
            X509v3 Subject Alternative Name: 
                DNS:localhost, IP Address:0.0.0.0, IP Address:0:0:0:0:0:0:0:0
            X509v3 Authority Key Identifier: 
                DirName:/C=US/ST=New York/L=Brooklyn/O=ucspi-ssl research laboratory/CN=ucspi-ssl research ca
                serial:EF:35:D2:09:2D:2A:D8:2C

    Signature Algorithm: sha1WithRSAEncryption
        9f:a6:a4:d3:96:df:57:96:24:27:9f:01:ca:ed:ee:59:2f:ef:
        d7:46:e9:2d:f9:df:c1:47:99:d1:d5:a3:76:1e:73:f8:55:ce:
        67:56:2a:f7:65:98:9b:0c:89:ad:f1:54:62:10:2f:38:0d:57:
        0d:a4:9a:c6:a7:86:c4:85:9c:d2:16:51:6d:15:4c:44:94:cb:
        78:f4:f5:ae:08:3a:61:80:4a:49:0e:2d:31:f1:94:fa:69:c0:
        58:93:b7:30:38:e6:ba:48:35:54:86:2e:38:a0:eb:73:3f:9c:
        96:cc:71:f7:41:6f:60:80:b4:3a:59:dd:8d:94:03:c8:bf:74:
        f6:f6:40:d8:86:86:1b:65:95:3d:e5:bb:a2:91:1b:db:64:f4:
        5b:28:2b:8e:a6:e0:60:9b:21:60:37:c9:5a:ad:38:be:40:1a:
        9e:2a:52:cd:39:00:1e:3a:1c:92:9a:07:21:ff:6b:37:08:fd:
        77:6f:b3:d9:b7:23:45:4e:f2:01:56:8b:13:3d:93:6b:28:c2:
        ee:0d:8d:f1:bc:d9:93:cf:ae:ad:9e:8b:8e:cf:91:c3:d9:1c:
        0f:6e:0e:86:06:fc:97:1d:c1:de:b2:da:5e:bf:c8:5a:07:03:
        a6:c1:6f:cb:7c:a1:79:c1:a3:ff:b6:2c:f1:8c:c8:89:f7:15:
        56:33:9e:c6
-----BEGIN CERTIFICATE-----
MIID4jCCAsqgAwIBAgIJANNK9O+HZdd8MA0GCSqGSIb3DQEBBQUAMHsxCzAJBgNV
BAYTAlVTMREwDwYDVQQIEwhOZXcgWW9yazERMA8GA1UEBxMIQnJvb2tseW4xJjAk
BgNVBAoTHXVjc3BpLXNzbCByZXNlYXJjaCBsYWJvcmF0b3J5MR4wHAYDVQQDExV1
Y3NwaS1zc2wgcmVzZWFyY2ggY2EwHhcNMTQwMTEyMTA1ODEyWhcNMjQwMTEwMTA1
ODEyWjBvMQswCQYDVQQGEwJVUzERMA8GA1UECBMITmV3IFlvcmsxETAPBgNVBAcT
CEJyb29rbHluMSYwJAYDVQQKEx11Y3NwaS1zc2wgcmVzZWFyY2ggbGFib3JhdG9y
eTESMBAGA1UEAxMJbG9jYWxob3N0MIGfMA0GCSqGSIb3DQEBAQUAA4GNADCBiQKB
gQCtob6qt3sIhgQqvbFEpm6PNi+PjgmK54kO7sE7jy6BSUr3ETEvaRar/pwnPNZW
UzgLKAjDXKgZKt/kRtm5bWgeV2rga8nkFhI4J3h8ZxdjBTXaY0MXDcPsA3o/LKkj
LShWtyF0cSA2EmMCW4Q/CAKITRFEYW7yfaOkRzpx3SjIeQIDAQABo4H4MIH1MAkG
A1UdEwQCMAAwCwYDVR0PBAQDAgWgMBMGA1UdJQQMMAoGCCsGAQUFBwMCMCwGA1Ud
EQQlMCOCCWxvY2FsaG9zdIcEAAAAAIcQAAAAAAAAAAAAAAAAAAAAADCBlwYDVR0j
BIGPMIGMoX+kfTB7MQswCQYDVQQGEwJVUzERMA8GA1UECBMITmV3IFlvcmsxETAP
BgNVBAcTCEJyb29rbHluMSYwJAYDVQQKEx11Y3NwaS1zc2wgcmVzZWFyY2ggbGFi
b3JhdG9yeTEeMBwGA1UEAxMVdWNzcGktc3NsIHJlc2VhcmNoIGNhggkA7zXSCS0q
2CwwDQYJKoZIhvcNAQEFBQADggEBAJ+mpNOW31eWJCefAcrt7lkv79dG6S3538FH
mdHVo3Yec/hVzmdWKvdlmJsMia3xVGIQLzgNVw2kmsanhsSFnNIWUW0VTESUy3j0
9a4IOmGASkkOLTHxlPppwFiTtzA45rpINVSGLjig63M/nJbMcfdBb2CAtDpZ3Y2U
A8i/dPb2QNiGhhtllT3lu6KRG9tk9FsoK46m4GCbIWA3yVqtOL5AGp4qUs05AB46
HJKaByH/azcI/Xdvs9m3I0VO8gFWixM9k2sowu4NjfG82ZPPrq2ei47PkcPZHA9u
DoYG/Jcdwd6y2l6/yFoHA6bBb8t8oXnBo/+2LPGMyIn3FVYznsY=
-----END CERTIFICATE-----
